; Function Attrs: mustprogress nounwind uwtable
define void @_ZN3gmx16nbnxn_atomdata_t23reduceForcesOverThreadsEv(ptr noundef nonnull align 8 dereferenceable(464) %0) local_unnamed_addr #13 align 2 {
  %2 = alloca i32, align 4
  %3 = tail call i32 @__kmpc_global_thread_num(ptr nonnull @2)
  call void @llvm.lifetime.start.p0(i64 4, ptr nonnull %2) #23
  %4 = getelementptr inbounds nuw i8, ptr %0, i64 408
  %5 = getelementptr inbounds nuw i8, ptr %0, i64 416
  %6 = load ptr, ptr %5, align 8, !tbaa !187
  %7 = load ptr, ptr %4, align 8, !tbaa !194
  %8 = ptrtoint ptr %6 to i64
  %9 = ptrtoint ptr %7 to i64
  %10 = sub i64 %8, %9
  %11 = sdiv exact i64 %10, 144
  %12 = trunc i64 %11 to i32
  store i32 %12, ptr %2, align 4, !tbaa !100
  tail call void @__kmpc_push_num_threads(ptr nonnull @2, i32 %3, i32 %12)
  call void (ptr, i32, ptr, ...) @__kmpc_fork_call(ptr nonnull @2, i32 2, ptr nonnull @_ZN3gmx16nbnxn_atomdata_t23reduceForcesOverThreadsEv.omp_outlined, ptr nonnull %2, ptr nonnull %0)
  call void @llvm.lifetime.end.p0(i64 4, ptr nonnull %2) #23
  ret void
}